target datalayout = "e-m:e-p270:32:32-p271:32:32-p272:64:64-i64:64-i128:128-f80:128-n8:16:32:64-S128"
target triple = "x86_64-pc-linux-gnu"

%struct.UBiDi = type { ptr, ptr, i32, i32, i32, i32, i32, i32, i32, i32, i32, ptr, ptr, ptr, ptr, ptr, ptr, i8, i8, ptr, ptr, i8, i32, i32, i8, i8, i8, ptr, i32, ptr, i32, ptr, i32, i32, i32, i32, i32, ptr, [10 x %struct.Para], i32, ptr, [1 x %struct.Run], i32, ptr, [5 x %struct.Isolate], %struct.InsertPoints, i32, ptr, ptr }
%struct.Para = type { i32, i32 }
%struct.Run = type { i32, i32, i32 }
%struct.Isolate = type { i32, i32, i32, i16 }
%struct.InsertPoints = type { i32, i32, i32, i32, ptr }

; Function Attrs: mustprogress nounwind uwtable
define zeroext i8 @ubidi_getParaLevelAtIndex_77(ptr noundef %0, i32 noundef %1) #7 {
  %3 = alloca ptr, align 8
  %4 = alloca i32, align 4
  %5 = alloca i32, align 4
  store ptr %0, ptr %3, align 8, !tbaa !11
  store i32 %1, ptr %4, align 4, !tbaa !7
  call void @llvm.lifetime.start.p0(i64 4, ptr %5) #10
  store i32 0, ptr %5, align 4, !tbaa !7
  br label %6

6:                                                ; preds = %25, %2
  %7 = load i32, ptr %5, align 4, !tbaa !7
  %8 = load ptr, ptr %3, align 8, !tbaa !11
  %9 = getelementptr inbounds nuw %struct.UBiDi, ptr %8, i32 0, i32 36
  %10 = load i32, ptr %9, align 8, !tbaa !54
  %11 = icmp slt i32 %7, %10
  br i1 %11, label %12, label %28

12:                                               ; preds = %6
  %13 = load i32, ptr %4, align 4, !tbaa !7
  %14 = load ptr, ptr %3, align 8, !tbaa !11
  %15 = getelementptr inbounds nuw %struct.UBiDi, ptr %14, i32 0, i32 37
  %16 = load ptr, ptr %15, align 8, !tbaa !55
  %17 = load i32, ptr %5, align 4, !tbaa !7
  %18 = sext i32 %17 to i64
  %19 = getelementptr inbounds %struct.Para, ptr %16, i64 %18
  %20 = getelementptr inbounds nuw %struct.Para, ptr %19, i32 0, i32 0
  %21 = load i32, ptr %20, align 4, !tbaa !56
  %22 = icmp slt i32 %13, %21
  br i1 %22, label %23, label %24

23:                                               ; preds = %12
  br label %28

24:                                               ; preds = %12
  br label %25

25:                                               ; preds = %24
  %26 = load i32, ptr %5, align 4, !tbaa !7
  %27 = add nsw i32 %26, 1
  store i32 %27, ptr %5, align 4, !tbaa !7
  br label %6, !llvm.loop !58

28:                                               ; preds = %23, %6
  %29 = load i32, ptr %5, align 4, !tbaa !7
  %30 = load ptr, ptr %3, align 8, !tbaa !11
  %31 = getelementptr inbounds nuw %struct.UBiDi, ptr %30, i32 0, i32 36
  %32 = load i32, ptr %31, align 8, !tbaa !54
  %33 = icmp sge i32 %29, %32
  br i1 %33, label %34, label %39

34:                                               ; preds = %28
  %35 = load ptr, ptr %3, align 8, !tbaa !11
  %36 = getelementptr inbounds nuw %struct.UBiDi, ptr %35, i32 0, i32 36
  %37 = load i32, ptr %36, align 8, !tbaa !54
  %38 = sub nsw i32 %37, 1
  store i32 %38, ptr %5, align 4, !tbaa !7
  br label %39

39:                                               ; preds = %34, %28
  %40 = load ptr, ptr %3, align 8, !tbaa !11
  %41 = getelementptr inbounds nuw %struct.UBiDi, ptr %40, i32 0, i32 37
  %42 = load ptr, ptr %41, align 8, !tbaa !55
  %43 = load i32, ptr %5, align 4, !tbaa !7
  %44 = sext i32 %43 to i64
  %45 = getelementptr inbounds %struct.Para, ptr %42, i64 %44
  %46 = getelementptr inbounds nuw %struct.Para, ptr %45, i32 0, i32 1
  %47 = load i32, ptr %46, align 4, !tbaa !59
  %48 = trunc i32 %47 to i8
  call void @llvm.lifetime.end.p0(i64 4, ptr %5) #10
  ret i8 %48
}

; Function Attrs: inlinehint mustprogress nounwind uwtable
define internal noundef signext i8 @_ZL9U_FAILURE10UErrorCode(i32 noundef %0) #2 {
  %2 = alloca i32, align 4
  store i32 %0, ptr %2, align 4, !tbaa !3
  %3 = load i32, ptr %2, align 4, !tbaa !3
  %4 = icmp sgt i32 %3, 0
  %5 = zext i1 %4 to i8
  ret i8 %5
}

; Function Attrs: mustprogress uwtable
define void @ubidi_getParagraphByIndex_77(ptr noundef %0, i32 noundef %1, ptr noundef %2, ptr noundef %3, ptr noundef %4, ptr noundef %5) #0 {
  %7 = alloca ptr, align 8
  %8 = alloca i32, align 4
  %9 = alloca ptr, align 8
  %10 = alloca ptr, align 8
  %11 = alloca ptr, align 8
  %12 = alloca ptr, align 8
  %13 = alloca i32, align 4
  %14 = alloca i32, align 4
  store ptr %0, ptr %7, align 8, !tbaa !11
  store i32 %1, ptr %8, align 4, !tbaa !7
  store ptr %2, ptr %9, align 8, !tbaa !28
  store ptr %3, ptr %10, align 8, !tbaa !28
  store ptr %4, ptr %11, align 8, !tbaa !64
  store ptr %5, ptr %12, align 8, !tbaa !9
  call void @llvm.lifetime.start.p0(i64 4, ptr %13) #10
  br label %15

15:                                               ; preds = %6
  %16 = load ptr, ptr %12, align 8, !tbaa !9
  %17 = icmp eq ptr %16, null
  br i1 %17, label %23, label %18

18:                                               ; preds = %15
  %19 = load ptr, ptr %12, align 8, !tbaa !9
  %20 = load i32, ptr %19, align 4, !tbaa !3
  %21 = call noundef signext i8 @_ZL9U_FAILURE10UErrorCode(i32 noundef %20)
  %22 = icmp ne i8 %21, 0
  br i1 %22, label %23, label %24

23:                                               ; preds = %18, %15
  store i32 1, ptr %14, align 4
  br label %134

24:                                               ; preds = %18
  br label %25

25:                                               ; preds = %24
  br label %26

26:                                               ; preds = %25
  br label %27

27:                                               ; preds = %26
  %28 = load ptr, ptr %7, align 8, !tbaa !11
  %29 = icmp ne ptr %28, null
  br i1 %29, label %30, label %51

30:                                               ; preds = %27
  %31 = load ptr, ptr %7, align 8, !tbaa !11
  %32 = getelementptr inbounds nuw %struct.UBiDi, ptr %31, i32 0, i32 0
  %33 = load ptr, ptr %32, align 8, !tbaa !33
  %34 = load ptr, ptr %7, align 8, !tbaa !11
  %35 = icmp eq ptr %33, %34
  br i1 %35, label %53, label %36

36:                                               ; preds = %30
  %37 = load ptr, ptr %7, align 8, !tbaa !11
  %38 = getelementptr inbounds nuw %struct.UBiDi, ptr %37, i32 0, i32 0
  %39 = load ptr, ptr %38, align 8, !tbaa !33
  %40 = icmp ne ptr %39, null
  br i1 %40, label %41, label %51

41:                                               ; preds = %36
  %42 = load ptr, ptr %7, align 8, !tbaa !11
  %43 = getelementptr inbounds nuw %struct.UBiDi, ptr %42, i32 0, i32 0
  %44 = load ptr, ptr %43, align 8, !tbaa !33
  %45 = getelementptr inbounds nuw %struct.UBiDi, ptr %44, i32 0, i32 0
  %46 = load ptr, ptr %45, align 8, !tbaa !33
  %47 = load ptr, ptr %7, align 8, !tbaa !11
  %48 = getelementptr inbounds nuw %struct.UBiDi, ptr %47, i32 0, i32 0
  %49 = load ptr, ptr %48, align 8, !tbaa !33
  %50 = icmp eq ptr %46, %49
  br i1 %50, label %53, label %51

51:                                               ; preds = %41, %36, %27
  %52 = load ptr, ptr %12, align 8, !tbaa !9
  store i32 27, ptr %52, align 4, !tbaa !3
  store i32 1, ptr %14, align 4
  br label %134

53:                                               ; preds = %41, %30
  br label %54

54:                                               ; preds = %53
  br label %55

55:                                               ; preds = %54
  br label %56

56:                                               ; preds = %55
  %57 = load i32, ptr %8, align 4, !tbaa !7
  %58 = icmp slt i32 %57, 0
  br i1 %58, label %65, label %59

59:                                               ; preds = %56
  %60 = load i32, ptr %8, align 4, !tbaa !7
  %61 = load ptr, ptr %7, align 8, !tbaa !11
  %62 = getelementptr inbounds nuw %struct.UBiDi, ptr %61, i32 0, i32 36
  %63 = load i32, ptr %62, align 8, !tbaa !54
  %64 = icmp sge i32 %60, %63
  br i1 %64, label %65, label %67

65:                                               ; preds = %59, %56
  %66 = load ptr, ptr %12, align 8, !tbaa !9
  store i32 1, ptr %66, align 4, !tbaa !3
  store i32 1, ptr %14, align 4
  br label %134

67:                                               ; preds = %59
  br label %68

68:                                               ; preds = %67
  br label %69

69:                                               ; preds = %68
  %70 = load ptr, ptr %7, align 8, !tbaa !11
  %71 = getelementptr inbounds nuw %struct.UBiDi, ptr %70, i32 0, i32 0
  %72 = load ptr, ptr %71, align 8, !tbaa !33
  store ptr %72, ptr %7, align 8, !tbaa !11
  %73 = load i32, ptr %8, align 4, !tbaa !7
  %74 = icmp ne i32 %73, 0
  br i1 %74, label %75, label %85

75:                                               ; preds = %69
  %76 = load ptr, ptr %7, align 8, !tbaa !11
  %77 = getelementptr inbounds nuw %struct.UBiDi, ptr %76, i32 0, i32 37
  %78 = load ptr, ptr %77, align 8, !tbaa !55
  %79 = load i32, ptr %8, align 4, !tbaa !7
  %80 = sub nsw i32 %79, 1
  %81 = sext i32 %80 to i64
  %82 = getelementptr inbounds %struct.Para, ptr %78, i64 %81
  %83 = getelementptr inbounds nuw %struct.Para, ptr %82, i32 0, i32 0
  %84 = load i32, ptr %83, align 4, !tbaa !56
  store i32 %84, ptr %13, align 4, !tbaa !7
  br label %86

85:                                               ; preds = %69
  store i32 0, ptr %13, align 4, !tbaa !7
  br label %86

86:                                               ; preds = %85, %75
  %87 = load ptr, ptr %9, align 8, !tbaa !28
  %88 = icmp ne ptr %87, null
  br i1 %88, label %89, label %92

89:                                               ; preds = %86
  %90 = load i32, ptr %13, align 4, !tbaa !7
  %91 = load ptr, ptr %9, align 8, !tbaa !28
  store i32 %90, ptr %91, align 4, !tbaa !7
  br label %92

92:                                               ; preds = %89, %86
  %93 = load ptr, ptr %10, align 8, !tbaa !28
  %94 = icmp ne ptr %93, null
  br i1 %94, label %95, label %105

95:                                               ; preds = %92
  %96 = load ptr, ptr %7, align 8, !tbaa !11
  %97 = getelementptr inbounds nuw %struct.UBiDi, ptr %96, i32 0, i32 37
  %98 = load ptr, ptr %97, align 8, !tbaa !55
  %99 = load i32, ptr %8, align 4, !tbaa !7
  %100 = sext i32 %99 to i64
  %101 = getelementptr inbounds %struct.Para, ptr %98, i64 %100
  %102 = getelementptr inbounds nuw %struct.Para, ptr %101, i32 0, i32 0
  %103 = load i32, ptr %102, align 4, !tbaa !56
  %104 = load ptr, ptr %10, align 8, !tbaa !28
  store i32 %103, ptr %104, align 4, !tbaa !7
  br label %105

105:                                              ; preds = %95, %92
  %106 = load ptr, ptr %11, align 8, !tbaa !64
  %107 = icmp ne ptr %106, null
  br i1 %107, label %108, label %133

108:                                              ; preds = %105
  %109 = load ptr, ptr %7, align 8, !tbaa !11
  %110 = getelementptr inbounds nuw %struct.UBiDi, ptr %109, i32 0, i32 26
  %111 = load i8, ptr %110, align 2, !tbaa !76
  %112 = icmp ne i8 %111, 0
  br i1 %112, label %113, label %122

113:                                              ; preds = %108
  %114 = load i32, ptr %13, align 4, !tbaa !7
  %115 = load ptr, ptr %7, align 8, !tbaa !11
  %116 = getelementptr inbounds nuw %struct.UBiDi, ptr %115, i32 0, i32 37
  %117 = load ptr, ptr %116, align 8, !tbaa !55
  %118 = getelementptr inbounds %struct.Para, ptr %117, i64 0
  %119 = getelementptr inbounds nuw %struct.Para, ptr %118, i32 0, i32 0
  %120 = load i32, ptr %119, align 4, !tbaa !56
  %121 = icmp slt i32 %114, %120
  br i1 %121, label %122, label %126

122:                                              ; preds = %113, %108
  %123 = load ptr, ptr %7, align 8, !tbaa !11
  %124 = getelementptr inbounds nuw %struct.UBiDi, ptr %123, i32 0, i32 25
  %125 = load i8, ptr %124, align 1, !tbaa !69
  br label %130

126:                                              ; preds = %113
  %127 = load ptr, ptr %7, align 8, !tbaa !11
  %128 = load i32, ptr %13, align 4, !tbaa !7
  %129 = call zeroext i8 @ubidi_getParaLevelAtIndex_77(ptr noundef %127, i32 noundef %128)
  br label %130

130:                                              ; preds = %126, %122
  %131 = phi i8 [ %125, %122 ], [ %129, %126 ]
  %132 = load ptr, ptr %11, align 8, !tbaa !64
  store i8 %131, ptr %132, align 1, !tbaa !30
  br label %133

133:                                              ; preds = %130, %105
  store i32 0, ptr %14, align 4
  br label %134

134:                                              ; preds = %133, %65, %51, %23
  call void @llvm.lifetime.end.p0(i64 4, ptr %13) #10
  %135 = load i32, ptr %14, align 4
  switch i32 %135, label %137 [
    i32 0, label %136
    i32 1, label %136
  ]

136:                                              ; preds = %134, %134
  ret void

137:                                              ; preds = %134
  unreachable
}