; Function Attrs: mustprogress nofree norecurse nosync nounwind memory(read, argmem: readwrite, inaccessiblemem: none) uwtable
define void @ubidi_getParagraphByIndex_77(ptr noundef readonly %0, i32 noundef %1, ptr noundef writeonly %2, ptr noundef writeonly %3, ptr noundef writeonly %4, ptr noundef %5) local_unnamed_addr #11 {
  %7 = icmp eq ptr %5, null
  br i1 %7, label %74, label %8

8:                                                ; preds = %6
  %9 = load i32, ptr %5, align 4, !tbaa !23
  %10 = icmp slt i32 %9, 1
  br i1 %10, label %11, label %74

11:                                               ; preds = %8
  %.not38 = icmp eq ptr %0, null
  br i1 %.not38, label %19, label %12

12:                                               ; preds = %11
  %13 = load ptr, ptr %0, align 8, !tbaa !27
  %14 = icmp eq ptr %13, %0
  br i1 %14, label %20, label %15

15:                                               ; preds = %12
  %.not39 = icmp eq ptr %13, null
  br i1 %.not39, label %19, label %16

16:                                               ; preds = %15
  %17 = load ptr, ptr %13, align 8, !tbaa !27
  %18 = icmp eq ptr %17, %13
  br i1 %18, label %20, label %19

19:                                               ; preds = %16, %15, %11
  store i32 27, ptr %5, align 4, !tbaa !23
  br label %74

20:                                               ; preds = %12, %16
  %21 = icmp slt i32 %1, 0
  br i1 %21, label %25, label %22

22:                                               ; preds = %20
  %23 = getelementptr inbounds nuw i8, ptr %0, i64 200
  %24 = load i32, ptr %23, align 8, !tbaa !40
  %.not40 = icmp slt i32 %1, %24
  br i1 %.not40, label %26, label %25

25:                                               ; preds = %22, %20
  store i32 1, ptr %5, align 4, !tbaa !23
  br label %74

26:                                               ; preds = %22
  %.not41 = icmp eq i32 %1, 0
  br i1 %.not41, label %34, label %27

27:                                               ; preds = %26
  %28 = getelementptr inbounds nuw i8, ptr %13, i64 208
  %29 = load ptr, ptr %28, align 8, !tbaa !41
  %30 = zext nneg i32 %1 to i64
  %31 = getelementptr %struct.Para, ptr %29, i64 %30
  %32 = getelementptr i8, ptr %31, i64 -8
  %33 = load i32, ptr %32, align 4, !tbaa !42
  br label %34

34:                                               ; preds = %26, %27
  %.0 = phi i32 [ %33, %27 ], [ 0, %26 ]
  %.not42 = icmp eq ptr %2, null
  br i1 %.not42, label %36, label %35

35:                                               ; preds = %34
  store i32 %.0, ptr %2, align 4, !tbaa !25
  br label %36

36:                                               ; preds = %35, %34
  %.not43 = icmp eq ptr %3, null
  br i1 %.not43, label %43, label %37

37:                                               ; preds = %36
  %38 = getelementptr inbounds nuw i8, ptr %13, i64 208
  %39 = load ptr, ptr %38, align 8, !tbaa !41
  %40 = zext nneg i32 %1 to i64
  %41 = getelementptr inbounds nuw %struct.Para, ptr %39, i64 %40
  %42 = load i32, ptr %41, align 4, !tbaa !42
  store i32 %42, ptr %3, align 4, !tbaa !25
  br label %43

43:                                               ; preds = %37, %36
  %.not44 = icmp eq ptr %4, null
  br i1 %.not44, label %74, label %44

44:                                               ; preds = %43
  %45 = getelementptr inbounds nuw i8, ptr %13, i64 142
  %46 = load i8, ptr %45, align 2, !tbaa !74
  %.not45 = icmp eq i8 %46, 0
  br i1 %.not45, label %52, label %47

47:                                               ; preds = %44
  %48 = getelementptr inbounds nuw i8, ptr %13, i64 208
  %49 = load ptr, ptr %48, align 8, !tbaa !41
  %50 = load i32, ptr %49, align 4, !tbaa !42
  %51 = icmp slt i32 %.0, %50
  br i1 %51, label %52, label %55

52:                                               ; preds = %47, %44
  %53 = getelementptr inbounds nuw i8, ptr %13, i64 141
  %54 = load i8, ptr %53, align 1, !tbaa !66
  br label %72

55:                                               ; preds = %47
  %56 = getelementptr inbounds nuw i8, ptr %13, i64 200
  %57 = load i32, ptr %56, align 8, !tbaa !40
  %58 = icmp sgt i32 %57, 0
  br i1 %58, label %.lr.ph.i, label %._crit_edge.thread.i

.lr.ph.i:                                         ; preds = %55
  %wide.trip.count.i = zext nneg i32 %57 to i64
  br label %59

59:                                               ; preds = %63, %.lr.ph.i
  %indvars.iv.i = phi i64 [ 0, %.lr.ph.i ], [ %indvars.iv.next.i, %63 ]
  %60 = getelementptr inbounds nuw %struct.Para, ptr %49, i64 %indvars.iv.i
  %61 = load i32, ptr %60, align 4, !tbaa !42
  %62 = icmp slt i32 %.0, %61
  br i1 %62, label %65, label %63

63:                                               ; preds = %59
  %indvars.iv.next.i = add nuw nsw i64 %indvars.iv.i, 1
  %exitcond.not.i = icmp eq i64 %indvars.iv.next.i, %wide.trip.count.i
  br i1 %exitcond.not.i, label %._crit_edge.thread.i, label %59, !llvm.loop !44

._crit_edge.thread.i:                             ; preds = %63, %55
  %64 = add nsw i32 %57, -1
  br label %ubidi_getParaLevelAtIndex_77.exit

65:                                               ; preds = %59
  %66 = trunc nuw nsw i64 %indvars.iv.i to i32
  br label %ubidi_getParaLevelAtIndex_77.exit

ubidi_getParaLevelAtIndex_77.exit:                ; preds = %._crit_edge.thread.i, %65
  %67 = phi i32 [ %66, %65 ], [ %64, %._crit_edge.thread.i ]
  %68 = sext i32 %67 to i64
  %69 = getelementptr inbounds %struct.Para, ptr %49, i64 %68, i32 1
  %70 = load i32, ptr %69, align 4, !tbaa !46
  %71 = trunc i32 %70 to i8
  br label %72

72:                                               ; preds = %ubidi_getParaLevelAtIndex_77.exit, %52
  %73 = phi i8 [ %54, %52 ], [ %71, %ubidi_getParaLevelAtIndex_77.exit ]
  store i8 %73, ptr %4, align 1, !tbaa !59
  br label %74

74:                                               ; preds = %43, %72, %6, %8, %25, %19
  ret void
}